target datalayout = "e-m:e-p270:32:32-p271:32:32-p272:64:64-i64:64-i128:128-f80:128-n8:16:32:64-S128"
target triple = "x86_64-pc-linux-gnu"

; Function Attrs: nounwind uwtable
define internal void @draw_sample_cline_gray(ptr noundef %0, i32 noundef %1, i32 noundef %2, ptr noundef %3, ptr noundef %4, i32 noundef %5) #1 {
  %7 = alloca ptr, align 8
  %8 = alloca i32, align 4
  %9 = alloca i32, align 4
  %10 = alloca ptr, align 8
  %11 = alloca ptr, align 8
  %12 = alloca i32, align 4
  %13 = alloca i32, align 4
  %14 = alloca i32, align 4
  %15 = alloca i32, align 4
  store ptr %0, ptr %7, align 8, !tbaa !69
  store i32 %1, ptr %8, align 4, !tbaa !49
  store i32 %2, ptr %9, align 4, !tbaa !49
  store ptr %3, ptr %10, align 8, !tbaa !92
  store ptr %4, ptr %11, align 8, !tbaa !69
  store i32 %5, ptr %12, align 4, !tbaa !49
  call void @llvm.lifetime.start.p0(i64 4, ptr %13) #13
  call void @llvm.lifetime.start.p0(i64 4, ptr %14) #13
  %16 = load i32, ptr %8, align 4, !tbaa !49
  %17 = load i32, ptr %12, align 4, !tbaa !49
  %18 = sub nsw i32 %16, %17
  %19 = sdiv i32 %18, 2
  store i32 %19, ptr %14, align 4, !tbaa !49
  call void @llvm.lifetime.start.p0(i64 4, ptr %15) #13
  %20 = load i32, ptr %14, align 4, !tbaa !49
  %21 = load i32, ptr %12, align 4, !tbaa !49
  %22 = add nsw i32 %20, %21
  store i32 %22, ptr %15, align 4, !tbaa !49
  %23 = load i32, ptr %14, align 4, !tbaa !49
  store i32 %23, ptr %13, align 4, !tbaa !49
  br label %24

24:                                               ; preds = %43, %6
  %25 = load i32, ptr %13, align 4, !tbaa !49
  %26 = load i32, ptr %15, align 4, !tbaa !49
  %27 = icmp slt i32 %25, %26
  br i1 %27, label %28, label %46

28:                                               ; preds = %24
  %29 = load ptr, ptr %11, align 8, !tbaa !69
  %30 = getelementptr inbounds i8, ptr %29, i64 0
  %31 = load i8, ptr %30, align 1, !tbaa !89
  %32 = zext i8 %31 to i32
  %33 = load ptr, ptr %7, align 8, !tbaa !69
  %34 = load i32, ptr %13, align 4, !tbaa !49
  %35 = load i32, ptr %9, align 4, !tbaa !49
  %36 = mul nsw i32 %34, %35
  %37 = sext i32 %36 to i64
  %38 = getelementptr inbounds i8, ptr %33, i64 %37
  %39 = load i8, ptr %38, align 1, !tbaa !89
  %40 = zext i8 %39 to i32
  %41 = add nsw i32 %40, %32
  %42 = trunc i32 %41 to i8
  store i8 %42, ptr %38, align 1, !tbaa !89
  br label %43

43:                                               ; preds = %28
  %44 = load i32, ptr %13, align 4, !tbaa !49
  %45 = add nsw i32 %44, 1
  store i32 %45, ptr %13, align 4, !tbaa !49
  br label %24, !llvm.loop !97

46:                                               ; preds = %24
  call void @llvm.lifetime.end.p0(i64 4, ptr %15) #13
  call void @llvm.lifetime.end.p0(i64 4, ptr %14) #13
  call void @llvm.lifetime.end.p0(i64 4, ptr %13) #13
  ret void
}