; Function Attrs: nofree norecurse nosync nounwind memory(argmem: readwrite) uwtable
define internal void @draw_sample_cline_gray(ptr noundef captures(none) %0, i32 noundef %1, i32 noundef %2, ptr readnone captures(none) %3, ptr noundef readonly captures(none) %4, i32 noundef %5) #7 {
  %7 = icmp sgt i32 %5, 0
  br i1 %7, label %.lr.ph.preheader, label %._crit_edge

.lr.ph.preheader:                                 ; preds = %6
  %8 = sub nsw i32 %1, %5
  %9 = sdiv i32 %8, 2
  %10 = add nsw i32 %9, %5
  %11 = sext i32 %9 to i64
  %12 = sext i32 %2 to i64
  %13 = sext i32 %10 to i64
  br label %.lr.ph

.lr.ph:                                           ; preds = %.lr.ph.preheader, %.lr.ph
  %indvars.iv = phi i64 [ %11, %.lr.ph.preheader ], [ %indvars.iv.next, %.lr.ph ]
  %14 = load i8, ptr %4, align 1, !tbaa !96
  %15 = mul nsw i64 %indvars.iv, %12
  %16 = getelementptr inbounds i8, ptr %0, i64 %15
  %17 = load i8, ptr %16, align 1, !tbaa !96
  %18 = add i8 %17, %14
  store i8 %18, ptr %16, align 1, !tbaa !96
  %indvars.iv.next = add nsw i64 %indvars.iv, 1
  %19 = icmp slt i64 %indvars.iv.next, %13
  br i1 %19, label %.lr.ph, label %._crit_edge, !llvm.loop !101

._crit_edge:                                      ; preds = %.lr.ph, %6
  ret void
}